target datalayout = "e-m:e-p270:32:32-p271:32:32-p272:64:64-i64:64-i128:128-f80:128-n8:16:32:64-S128"
target triple = "x86_64-pc-linux-gnu"

%struct.RTSPMessageHeader = type { i32, i32, i32, i64, i64, [8 x %struct.RTSPTransportField], i32, [512 x i8], [4096 x i8], [64 x i8], [64 x i8], i32, i32, [256 x i8], [64 x i8], [64 x i8] }
%struct.RTSPTransportField = type { i32, i32, i32, i32, i32, i32, i32, i32, i32, i32, %struct.sockaddr_storage, [47 x i8], i32, i32 }
%struct.sockaddr_storage = type { i16, [118 x i8], i64 }
%struct.AVFormatContext = type { ptr, ptr, ptr, ptr, ptr, i32, i32, ptr, i32, ptr, i32, ptr, ptr, i64, i64, i64, i32, i32, i32, i64, i64, ptr, i32, i32, ptr, i32, i32, i32, i32, ptr, i64, i32, i32, %struct.AVIOInterruptCB, i32, i32, i32, i32, i64, i32, i32, i32, i32, i32, i32, i32, i32, i32, i32, i32, i32, i64, i32, i32, i32, i32, i32, ptr, ptr, ptr, ptr, i32, ptr, ptr, ptr, ptr, i32, ptr, ptr, i64, ptr, ptr, ptr, i64 }
%struct.AVIOInterruptCB = type { ptr, ptr }
%struct.RTSPState = type { ptr, ptr, i32, ptr, i32, i64, i32, [512 x i8], i32, i64, i32, i32, i32, [64 x i8], [128 x i8], %struct.HTTPAuthState, [2048 x i8], ptr, i32, ptr, ptr, [1024 x i8], ptr, i64, [4096 x i8], ptr, i32, i32, ptr, i32, i32, ptr, i32, i64, ptr, i32, i32, i32, i32, i32, i32, i32, i32, i32, i32, i64, i32, ptr, [4 x i8], i32, i32, ptr }
%struct.HTTPAuthState = type { i32, [200 x i8], %struct.DigestParams, i32 }
%struct.DigestParams = type { [300 x i8], [10 x i8], [30 x i8], [300 x i8], [10 x i8], i32 }
%struct.AVStream = type { ptr, i32, i32, ptr, ptr, %struct.AVRational, i64, i64, i64, i32, i32, %struct.AVRational, ptr, %struct.AVRational, %struct.AVPacket, i32, %struct.AVRational, i32 }
%struct.AVPacket = type { ptr, i64, i64, ptr, i32, i32, i32, ptr, i32, i64, i64, ptr, ptr, %struct.AVRational }
%struct.AVRational = type { i32, i32 }

@.str.18 = private unnamed_addr constant [6 x i8] c"PAUSE\00", align 1

; Function Attrs: inlinehint nounwind uwtable
define internal i32 @ff_rtsp_averror(i32 noundef %0, i32 noundef %1) #3 {
  %3 = alloca i32, align 4
  %4 = alloca i32, align 4
  store i32 %0, ptr %3, align 4, !tbaa !28
  store i32 %1, ptr %4, align 4, !tbaa !28
  %5 = load i32, ptr %3, align 4, !tbaa !28
  %6 = load i32, ptr %4, align 4, !tbaa !28
  %7 = call i32 @ff_http_averror(i32 noundef %5, i32 noundef %6)
  ret i32 %7
}

; Function Attrs: nounwind uwtable
define internal i32 @rtsp_read_pause(ptr noundef %0) #0 {
  %2 = alloca i32, align 4
  %3 = alloca ptr, align 8
  %4 = alloca ptr, align 8
  %5 = alloca %struct.RTSPMessageHeader, align 8
  %6 = alloca ptr, align 8
  %7 = alloca i32, align 4
  store ptr %0, ptr %3, align 8, !tbaa !4
  call void @llvm.lifetime.start.p0(i64 8, ptr %4) #10
  %8 = load ptr, ptr %3, align 8, !tbaa !4
  %9 = getelementptr inbounds nuw %struct.AVFormatContext, ptr %8, i32 0, i32 3
  %10 = load ptr, ptr %9, align 8, !tbaa !9
  store ptr %10, ptr %4, align 8, !tbaa !26
  call void @llvm.lifetime.start.p0(i64 6960, ptr %5) #10
  call void @llvm.lifetime.start.p0(i64 8, ptr %6) #10
  store ptr %5, ptr %6, align 8, !tbaa !48
  %11 = load ptr, ptr %4, align 8, !tbaa !26
  %12 = getelementptr inbounds nuw %struct.RTSPState, ptr %11, i32 0, i32 4
  %13 = load i32, ptr %12, align 8, !tbaa !37
  %14 = icmp ne i32 %13, 1
  br i1 %14, label %15, label %16

15:                                               ; preds = %1
  store i32 0, ptr %2, align 4
  store i32 1, ptr %7, align 4
  br label %47

16:                                               ; preds = %1
  %17 = load ptr, ptr %4, align 8, !tbaa !26
  %18 = getelementptr inbounds nuw %struct.RTSPState, ptr %17, i32 0, i32 12
  %19 = load i32, ptr %18, align 8, !tbaa !58
  %20 = icmp eq i32 %19, 1
  br i1 %20, label %21, label %26

21:                                               ; preds = %16
  %22 = load ptr, ptr %4, align 8, !tbaa !26
  %23 = getelementptr inbounds nuw %struct.RTSPState, ptr %22, i32 0, i32 18
  %24 = load i32, ptr %23, align 8, !tbaa !97
  %25 = icmp ne i32 %24, 0
  br i1 %25, label %43, label %26

26:                                               ; preds = %21, %16
  %27 = load ptr, ptr %3, align 8, !tbaa !4
  %28 = load ptr, ptr %4, align 8, !tbaa !26
  %29 = getelementptr inbounds nuw %struct.RTSPState, ptr %28, i32 0, i32 24
  %30 = getelementptr inbounds [4096 x i8], ptr %29, i64 0, i64 0
  %31 = load ptr, ptr %6, align 8, !tbaa !48
  %32 = call i32 @ff_rtsp_send_cmd(ptr noundef %27, ptr noundef @.str.18, ptr noundef %30, ptr noundef null, ptr noundef %31, ptr noundef null)
  %33 = load ptr, ptr %6, align 8, !tbaa !48
  %34 = getelementptr inbounds nuw %struct.RTSPMessageHeader, ptr %33, i32 0, i32 1
  %35 = load i32, ptr %34, align 4, !tbaa !59
  %36 = icmp ne i32 %35, 200
  br i1 %36, label %37, label %42

37:                                               ; preds = %26
  %38 = load ptr, ptr %6, align 8, !tbaa !48
  %39 = getelementptr inbounds nuw %struct.RTSPMessageHeader, ptr %38, i32 0, i32 1
  %40 = load i32, ptr %39, align 4, !tbaa !59
  %41 = call i32 @ff_rtsp_averror(i32 noundef %40, i32 noundef -1)
  store i32 %41, ptr %2, align 4
  store i32 1, ptr %7, align 4
  br label %47

42:                                               ; preds = %26
  br label %43

43:                                               ; preds = %42, %21
  br label %44

44:                                               ; preds = %43
  %45 = load ptr, ptr %4, align 8, !tbaa !26
  %46 = getelementptr inbounds nuw %struct.RTSPState, ptr %45, i32 0, i32 4
  store i32 2, ptr %46, align 8, !tbaa !37
  store i32 0, ptr %2, align 4
  store i32 1, ptr %7, align 4
  br label %47

47:                                               ; preds = %44, %37, %15
  call void @llvm.lifetime.end.p0(i64 8, ptr %6) #10
  call void @llvm.lifetime.end.p0(i64 6960, ptr %5) #10
  call void @llvm.lifetime.end.p0(i64 8, ptr %4) #10
  %48 = load i32, ptr %2, align 4
  ret i32 %48
}

; Function Attrs: nounwind uwtable
define internal i32 @rtsp_read_seek(ptr noundef %0, i32 noundef %1, i64 noundef %2, i32 noundef %3) #0 {
  %5 = alloca i32, align 4
  %6 = alloca ptr, align 8
  %7 = alloca i32, align 4
  %8 = alloca i64, align 8
  %9 = alloca i32, align 4
  %10 = alloca ptr, align 8
  %11 = alloca i32, align 4
  %12 = alloca %struct.AVRational, align 4
  %13 = alloca i32, align 4
  store ptr %0, ptr %6, align 8, !tbaa !4
  store i32 %1, ptr %7, align 4, !tbaa !28
  store i64 %2, ptr %8, align 8, !tbaa !108
  store i32 %3, ptr %9, align 4, !tbaa !28
  call void @llvm.lifetime.start.p0(i64 8, ptr %10) #10
  %14 = load ptr, ptr %6, align 8, !tbaa !4
  %15 = getelementptr inbounds nuw %struct.AVFormatContext, ptr %14, i32 0, i32 3
  %16 = load ptr, ptr %15, align 8, !tbaa !9
  store ptr %16, ptr %10, align 8, !tbaa !26
  call void @llvm.lifetime.start.p0(i64 4, ptr %11) #10
  %17 = load i64, ptr %8, align 8, !tbaa !108
  %18 = load ptr, ptr %6, align 8, !tbaa !4
  %19 = getelementptr inbounds nuw %struct.AVFormatContext, ptr %18, i32 0, i32 7
  %20 = load ptr, ptr %19, align 8, !tbaa !86
  %21 = load i32, ptr %7, align 4, !tbaa !28
  %22 = sext i32 %21 to i64
  %23 = getelementptr inbounds ptr, ptr %20, i64 %22
  %24 = load ptr, ptr %23, align 8, !tbaa !87
  %25 = getelementptr inbounds nuw %struct.AVStream, ptr %24, i32 0, i32 5
  %26 = getelementptr inbounds nuw %struct.AVRational, ptr %12, i32 0, i32 0
  store i32 1, ptr %26, align 4, !tbaa !109
  %27 = getelementptr inbounds nuw %struct.AVRational, ptr %12, i32 0, i32 1
  store i32 1000000, ptr %27, align 4, !tbaa !110
  %28 = load i64, ptr %25, align 8
  %29 = load i64, ptr %12, align 4
  %30 = call i64 @av_rescale_q(i64 noundef %17, i64 %28, i64 %29) #12
  %31 = load ptr, ptr %10, align 8, !tbaa !26
  %32 = getelementptr inbounds nuw %struct.RTSPState, ptr %31, i32 0, i32 5
  store i64 %30, ptr %32, align 8, !tbaa !111
  %33 = load ptr, ptr %10, align 8, !tbaa !26
  %34 = getelementptr inbounds nuw %struct.RTSPState, ptr %33, i32 0, i32 4
  %35 = load i32, ptr %34, align 8, !tbaa !37
  switch i32 %35, label %36 [
    i32 0, label %55
    i32 1, label %37
    i32 2, label %52
  ]

36:                                               ; preds = %4
  br label %55

37:                                               ; preds = %4
  %38 = load ptr, ptr %6, align 8, !tbaa !4
  %39 = call i32 @rtsp_read_pause(ptr noundef %38)
  store i32 %39, ptr %11, align 4, !tbaa !28
  %40 = icmp ne i32 %39, 0
  br i1 %40, label %41, label %43

41:                                               ; preds = %37
  %42 = load i32, ptr %11, align 4, !tbaa !28
  store i32 %42, ptr %5, align 4
  store i32 1, ptr %13, align 4
  br label %56

43:                                               ; preds = %37
  %44 = load ptr, ptr %10, align 8, !tbaa !26
  %45 = getelementptr inbounds nuw %struct.RTSPState, ptr %44, i32 0, i32 4
  store i32 3, ptr %45, align 8, !tbaa !37
  %46 = load ptr, ptr %6, align 8, !tbaa !4
  %47 = call i32 @rtsp_read_play(ptr noundef %46)
  store i32 %47, ptr %11, align 4, !tbaa !28
  %48 = icmp ne i32 %47, 0
  br i1 %48, label %49, label %51

49:                                               ; preds = %43
  %50 = load i32, ptr %11, align 4, !tbaa !28
  store i32 %50, ptr %5, align 4
  store i32 1, ptr %13, align 4
  br label %56

51:                                               ; preds = %43
  br label %55

52:                                               ; preds = %4
  %53 = load ptr, ptr %10, align 8, !tbaa !26
  %54 = getelementptr inbounds nuw %struct.RTSPState, ptr %53, i32 0, i32 4
  store i32 0, ptr %54, align 8, !tbaa !37
  br label %55

55:                                               ; preds = %52, %51, %36, %4
  store i32 0, ptr %5, align 4
  store i32 1, ptr %13, align 4
  br label %56

56:                                               ; preds = %55, %49, %41
  call void @llvm.lifetime.end.p0(i64 4, ptr %11) #10
  call void @llvm.lifetime.end.p0(i64 8, ptr %10) #10
  %57 = load i32, ptr %5, align 4
  ret i32 %57
}