; Function Attrs: nounwind uwtable
define internal i32 @rtsp_read_seek(ptr noundef %0, i32 noundef %1, i64 noundef %2, i32 %3) #0 {
  %5 = alloca %struct.RTSPMessageHeader, align 8
  %6 = getelementptr inbounds nuw i8, ptr %0, i64 24
  %7 = load ptr, ptr %6, align 8, !tbaa !4
  %8 = getelementptr inbounds nuw i8, ptr %0, i64 48
  %9 = load ptr, ptr %8, align 8, !tbaa !95
  %10 = sext i32 %1 to i64
  %11 = getelementptr inbounds ptr, ptr %9, i64 %10
  %12 = load ptr, ptr %11, align 8, !tbaa !96
  %13 = getelementptr inbounds nuw i8, ptr %12, i64 32
  %14 = load i64, ptr %13, align 8
  %15 = tail call i64 @av_rescale_q(i64 noundef %2, i64 %14, i64 4294967296000001) #13
  %16 = getelementptr inbounds nuw i8, ptr %7, i64 40
  store i64 %15, ptr %16, align 8, !tbaa !117
  %17 = getelementptr inbounds nuw i8, ptr %7, i64 32
  %18 = load i32, ptr %17, align 8, !tbaa !38
  switch i32 %18, label %35 [
    i32 2, label %34
    i32 1, label %19
  ]

19:                                               ; preds = %4
  call void @llvm.lifetime.start.p0(i64 6960, ptr nonnull %5) #11
  %20 = getelementptr inbounds nuw i8, ptr %7, i64 584
  %21 = load i32, ptr %20, align 8, !tbaa !48
  %22 = icmp eq i32 %21, 1
  br i1 %22, label %23, label %26

23:                                               ; preds = %19
  %24 = getelementptr inbounds nuw i8, ptr %7, i64 3704
  %25 = load i32, ptr %24, align 8, !tbaa !106
  %.not11.i = icmp eq i32 %25, 0
  br i1 %.not11.i, label %26, label %rtsp_read_pause.exit.thread

26:                                               ; preds = %23, %19
  %27 = getelementptr inbounds nuw i8, ptr %7, i64 4768
  %28 = call i32 @ff_rtsp_send_cmd(ptr noundef nonnull %0, ptr noundef nonnull @.str.18, ptr noundef nonnull %27, ptr noundef null, ptr noundef nonnull %5, ptr noundef null) #11
  %29 = getelementptr inbounds nuw i8, ptr %5, i64 4
  %30 = load i32, ptr %29, align 4, !tbaa !49
  %.not12.i = icmp eq i32 %30, 200
  br i1 %.not12.i, label %rtsp_read_pause.exit.thread, label %rtsp_read_pause.exit

rtsp_read_pause.exit.thread:                      ; preds = %23, %26
  call void @llvm.lifetime.end.p0(i64 6960, ptr nonnull %5) #11
  br label %32

rtsp_read_pause.exit:                             ; preds = %26
  %31 = call i32 @ff_http_averror(i32 noundef %30, i32 noundef -1) #11
  call void @llvm.lifetime.end.p0(i64 6960, ptr nonnull %5) #11
  %.not = icmp eq i32 %31, 0
  br i1 %.not, label %32, label %36

32:                                               ; preds = %rtsp_read_pause.exit.thread, %rtsp_read_pause.exit
  store i32 3, ptr %17, align 8, !tbaa !38
  %33 = call i32 @rtsp_read_play(ptr noundef nonnull %0)
  %.not14 = icmp eq i32 %33, 0
  br i1 %.not14, label %35, label %36

34:                                               ; preds = %4
  store i32 0, ptr %17, align 8, !tbaa !38
  br label %35

35:                                               ; preds = %32, %4, %34
  br label %36

36:                                               ; preds = %32, %rtsp_read_pause.exit, %35
  %.0 = phi i32 [ 0, %35 ], [ %31, %rtsp_read_pause.exit ], [ %33, %32 ]
  ret i32 %.0
}